; Function Attrs: mustprogress uwtable
define noundef zeroext i1 @_ZN9grpc_core10HPackTable19SetCurrentTableSizeEj(ptr noundef nonnull align 8 captures(none) dereferenceable(72) %0, i32 noundef %1) local_unnamed_addr #8 align 2 personality ptr @__gxx_personality_v0 {
  %3 = alloca i32, align 4
  %4 = alloca %"class.absl::lts_20240722::log_internal::LogMessage", align 8
  %5 = getelementptr inbounds nuw i8, ptr %0, i64 8
  %6 = load i32, ptr %5, align 8, !tbaa !65
  %7 = icmp eq i32 %6, %1
  br i1 %7, label %26, label %8

8:                                                ; preds = %2
  %9 = getelementptr inbounds nuw i8, ptr %0, i64 4
  %10 = load i32, ptr %9, align 4, !tbaa !62
  %11 = icmp ugt i32 %1, %10
  br i1 %11, label %26, label %12

12:                                               ; preds = %8
  %13 = load atomic i8, ptr getelementptr inbounds nuw (i8, ptr @_ZN9grpc_core10http_traceE, i64 16) monotonic, align 8
  %14 = trunc i8 %13 to i1
  br i1 %14, label %15, label %.critedge17, !prof !41

15:                                               ; preds = %12
  call void @llvm.lifetime.start.p0(i64 16, ptr nonnull %4) #31
  call void @_ZN4absl12lts_2024072212log_internal10LogMessageC1EPKciNS2_7InfoTagE(ptr noundef nonnull align 8 dereferenceable(16) %4, ptr noundef nonnull @.str.1, i32 noundef 141) #32
  invoke void @_ZN4absl12lts_2024072212log_internal10LogMessage19CopyToEncodedBufferILNS2_10StringTypeE0EEEvSt17basic_string_viewIcSt11char_traitsIcEE(ptr noundef nonnull align 8 dereferenceable(16) %4, i64 34, ptr nonnull @.str.5)
          to label %_ZN4absl12lts_2024072212log_internal10LogMessagelsILi35EEERS2_RAT__Kc.exit unwind label %21

_ZN4absl12lts_2024072212log_internal10LogMessagelsILi35EEERS2_RAT__Kc.exit: ; preds = %15
  call void @llvm.lifetime.start.p0(i64 4, ptr nonnull %3)
  store i32 %1, ptr %3, align 4, !tbaa !63
  %16 = invoke noundef nonnull align 8 dereferenceable(16) ptr @_ZN4absl12lts_2024072212log_internal10LogMessagelsIjTnNSt9enable_ifIXntsr4absl16HasAbslStringifyIT_EE5valueEiE4typeELi0EEERS2_RKS5_(ptr noundef nonnull align 8 dereferenceable(16) %4, ptr noundef nonnull align 4 dereferenceable(4) %3)
          to label %.critedge unwind label %21

.critedge:                                        ; preds = %_ZN4absl12lts_2024072212log_internal10LogMessagelsILi35EEERS2_RAT__Kc.exit
  call void @llvm.lifetime.end.p0(i64 4, ptr nonnull %3)
  call void @_ZN4absl12lts_2024072212log_internal10LogMessageD1Ev(ptr noundef nonnull align 8 dereferenceable(16) %4) #37
  call void @llvm.lifetime.end.p0(i64 16, ptr nonnull %4) #31
  br label %.critedge17

.critedge17:                                      ; preds = %12, %.critedge
  %17 = load i32, ptr %0, align 8, !tbaa !59
  %18 = icmp ugt i32 %17, %1
  br i1 %18, label %.lr.ph, label %._crit_edge

.lr.ph:                                           ; preds = %.critedge17, %.lr.ph
  call void @_ZN9grpc_core10HPackTable8EvictOneEv(ptr noundef nonnull align 8 dereferenceable(72) %0)
  %19 = load i32, ptr %0, align 8, !tbaa !59
  %20 = icmp ugt i32 %19, %1
  br i1 %20, label %.lr.ph, label %._crit_edge, !llvm.loop !66

21:                                               ; preds = %_ZN4absl12lts_2024072212log_internal10LogMessagelsILi35EEERS2_RAT__Kc.exit, %15
  %22 = landingpad { ptr, i32 }
          cleanup
  call void @_ZN4absl12lts_2024072212log_internal10LogMessageD1Ev(ptr noundef nonnull align 8 dereferenceable(16) %4) #37
  call void @llvm.lifetime.end.p0(i64 16, ptr nonnull %4) #31
  resume { ptr, i32 } %22

._crit_edge:                                      ; preds = %.lr.ph, %.critedge17
  store i32 %1, ptr %5, align 8, !tbaa !65
  %23 = add i32 %1, 31
  %24 = lshr i32 %23, 5
  %.sroa.speculated = call i32 @llvm.umax.i32(i32 %24, i32 128)
  %25 = getelementptr inbounds nuw i8, ptr %0, i64 16
  call void @_ZN9grpc_core10HPackTable17MementoRingBuffer7RebuildEj(ptr noundef nonnull align 8 dereferenceable(48) %25, i32 noundef %.sroa.speculated)
  br label %26

26:                                               ; preds = %8, %2, %._crit_edge
  %.0 = phi i1 [ true, %._crit_edge ], [ true, %2 ], [ false, %8 ]
  ret i1 %.0
}